target datalayout = "e-m:e-p270:32:32-p271:32:32-p272:64:64-i64:64-i128:128-f80:128-n8:16:32:64-S128"
target triple = "x86_64-pc-linux-gnu"

%struct.ASN1_ENCODING_st = type { ptr, i64, i32 }
%struct.X509_name_st = type { ptr, i32, ptr, ptr, i32 }
%struct.X509_crl_st = type { ptr, ptr, ptr, i32, i32, ptr, ptr, i32, i32, ptr, ptr, [20 x i8], ptr, ptr, ptr }
%struct.X509_crl_info_st = type { ptr, ptr, ptr, ptr, ptr, ptr, ptr, %struct.ASN1_ENCODING_st }

; Function Attrs: nounwind uwtable
define hidden i32 @X509_NAME_cmp(ptr noundef %0, ptr noundef %1) #0 {
  %3 = alloca i32, align 4
  %4 = alloca ptr, align 8
  %5 = alloca ptr, align 8
  %6 = alloca i32, align 4
  %7 = alloca i32, align 4
  store ptr %0, ptr %4, align 8, !tbaa !37
  store ptr %1, ptr %5, align 8, !tbaa !37
  call void @llvm.lifetime.start.p0(i64 4, ptr %6) #5
  %8 = load ptr, ptr %4, align 8, !tbaa !37
  %9 = getelementptr inbounds nuw %struct.X509_name_st, ptr %8, i32 0, i32 3
  %10 = load ptr, ptr %9, align 8, !tbaa !38
  %11 = icmp ne ptr %10, null
  br i1 %11, label %12, label %17

12:                                               ; preds = %2
  %13 = load ptr, ptr %4, align 8, !tbaa !37
  %14 = getelementptr inbounds nuw %struct.X509_name_st, ptr %13, i32 0, i32 1
  %15 = load i32, ptr %14, align 8, !tbaa !42
  %16 = icmp ne i32 %15, 0
  br i1 %16, label %17, label %24

17:                                               ; preds = %12, %2
  %18 = load ptr, ptr %4, align 8, !tbaa !37
  %19 = call i32 @i2d_X509_NAME(ptr noundef %18, ptr noundef null)
  store i32 %19, ptr %6, align 4, !tbaa !35
  %20 = load i32, ptr %6, align 4, !tbaa !35
  %21 = icmp slt i32 %20, 0
  br i1 %21, label %22, label %23

22:                                               ; preds = %17
  store i32 -2, ptr %3, align 4
  store i32 1, ptr %7, align 4
  br label %65

23:                                               ; preds = %17
  br label %24

24:                                               ; preds = %23, %12
  %25 = load ptr, ptr %5, align 8, !tbaa !37
  %26 = getelementptr inbounds nuw %struct.X509_name_st, ptr %25, i32 0, i32 3
  %27 = load ptr, ptr %26, align 8, !tbaa !38
  %28 = icmp ne ptr %27, null
  br i1 %28, label %29, label %34

29:                                               ; preds = %24
  %30 = load ptr, ptr %5, align 8, !tbaa !37
  %31 = getelementptr inbounds nuw %struct.X509_name_st, ptr %30, i32 0, i32 1
  %32 = load i32, ptr %31, align 8, !tbaa !42
  %33 = icmp ne i32 %32, 0
  br i1 %33, label %34, label %41

34:                                               ; preds = %29, %24
  %35 = load ptr, ptr %5, align 8, !tbaa !37
  %36 = call i32 @i2d_X509_NAME(ptr noundef %35, ptr noundef null)
  store i32 %36, ptr %6, align 4, !tbaa !35
  %37 = load i32, ptr %6, align 4, !tbaa !35
  %38 = icmp slt i32 %37, 0
  br i1 %38, label %39, label %40

39:                                               ; preds = %34
  store i32 -2, ptr %3, align 4
  store i32 1, ptr %7, align 4
  br label %65

40:                                               ; preds = %34
  br label %41

41:                                               ; preds = %40, %29
  %42 = load ptr, ptr %4, align 8, !tbaa !37
  %43 = getelementptr inbounds nuw %struct.X509_name_st, ptr %42, i32 0, i32 4
  %44 = load i32, ptr %43, align 8, !tbaa !43
  %45 = load ptr, ptr %5, align 8, !tbaa !37
  %46 = getelementptr inbounds nuw %struct.X509_name_st, ptr %45, i32 0, i32 4
  %47 = load i32, ptr %46, align 8, !tbaa !43
  %48 = sub nsw i32 %44, %47
  store i32 %48, ptr %6, align 4, !tbaa !35
  %49 = load i32, ptr %6, align 4, !tbaa !35
  %50 = icmp ne i32 %49, 0
  br i1 %50, label %51, label %53

51:                                               ; preds = %41
  %52 = load i32, ptr %6, align 4, !tbaa !35
  store i32 %52, ptr %3, align 4
  store i32 1, ptr %7, align 4
  br label %65

53:                                               ; preds = %41
  %54 = load ptr, ptr %4, align 8, !tbaa !37
  %55 = getelementptr inbounds nuw %struct.X509_name_st, ptr %54, i32 0, i32 3
  %56 = load ptr, ptr %55, align 8, !tbaa !38
  %57 = load ptr, ptr %5, align 8, !tbaa !37
  %58 = getelementptr inbounds nuw %struct.X509_name_st, ptr %57, i32 0, i32 3
  %59 = load ptr, ptr %58, align 8, !tbaa !38
  %60 = load ptr, ptr %4, align 8, !tbaa !37
  %61 = getelementptr inbounds nuw %struct.X509_name_st, ptr %60, i32 0, i32 4
  %62 = load i32, ptr %61, align 8, !tbaa !43
  %63 = sext i32 %62 to i64
  %64 = call i32 @memcmp(ptr noundef %56, ptr noundef %59, i64 noundef %63) #6
  store i32 %64, ptr %3, align 4
  store i32 1, ptr %7, align 4
  br label %65

65:                                               ; preds = %53, %51, %39, %22
  call void @llvm.lifetime.end.p0(i64 4, ptr %6) #5
  %66 = load i32, ptr %3, align 4
  ret i32 %66
}

; Function Attrs: nounwind uwtable
define hidden i32 @X509_CRL_cmp(ptr noundef %0, ptr noundef %1) #0 {
  %3 = alloca ptr, align 8
  %4 = alloca ptr, align 8
  store ptr %0, ptr %3, align 8, !tbaa !51
  store ptr %1, ptr %4, align 8, !tbaa !51
  %5 = load ptr, ptr %3, align 8, !tbaa !51
  %6 = getelementptr inbounds nuw %struct.X509_crl_st, ptr %5, i32 0, i32 0
  %7 = load ptr, ptr %6, align 8, !tbaa !53
  %8 = getelementptr inbounds nuw %struct.X509_crl_info_st, ptr %7, i32 0, i32 2
  %9 = load ptr, ptr %8, align 8, !tbaa !59
  %10 = load ptr, ptr %4, align 8, !tbaa !51
  %11 = getelementptr inbounds nuw %struct.X509_crl_st, ptr %10, i32 0, i32 0
  %12 = load ptr, ptr %11, align 8, !tbaa !53
  %13 = getelementptr inbounds nuw %struct.X509_crl_info_st, ptr %12, i32 0, i32 2
  %14 = load ptr, ptr %13, align 8, !tbaa !59
  %15 = call i32 @X509_NAME_cmp(ptr noundef %9, ptr noundef %14)
  ret i32 %15
}