; Function Attrs: nounwind uwtable
define hidden i32 @X509_CRL_cmp(ptr noundef readonly captures(none) %0, ptr noundef readonly captures(none) %1) local_unnamed_addr #0 {
  %3 = load ptr, ptr %0, align 8, !tbaa !43
  %4 = getelementptr inbounds nuw i8, ptr %3, i64 16
  %5 = load ptr, ptr %4, align 8, !tbaa !49
  %6 = load ptr, ptr %1, align 8, !tbaa !43
  %7 = getelementptr inbounds nuw i8, ptr %6, i64 16
  %8 = load ptr, ptr %7, align 8, !tbaa !49
  %9 = getelementptr inbounds nuw i8, ptr %5, i64 24
  %10 = load ptr, ptr %9, align 8, !tbaa !33
  %.not.i = icmp eq ptr %10, null
  br i1 %.not.i, label %14, label %11

11:                                               ; preds = %2
  %12 = getelementptr inbounds nuw i8, ptr %5, i64 8
  %13 = load i32, ptr %12, align 8, !tbaa !37
  %.not16.i = icmp eq i32 %13, 0
  br i1 %.not16.i, label %17, label %14

14:                                               ; preds = %11, %2
  %15 = tail call i32 @i2d_X509_NAME(ptr noundef nonnull %5, ptr noundef null) #8
  %16 = icmp slt i32 %15, 0
  br i1 %16, label %X509_NAME_cmp.exit, label %17

17:                                               ; preds = %14, %11
  %18 = getelementptr inbounds nuw i8, ptr %8, i64 24
  %19 = load ptr, ptr %18, align 8, !tbaa !33
  %.not17.i = icmp eq ptr %19, null
  br i1 %.not17.i, label %23, label %20

20:                                               ; preds = %17
  %21 = getelementptr inbounds nuw i8, ptr %8, i64 8
  %22 = load i32, ptr %21, align 8, !tbaa !37
  %.not18.i = icmp eq i32 %22, 0
  br i1 %.not18.i, label %26, label %23

23:                                               ; preds = %20, %17
  %24 = tail call i32 @i2d_X509_NAME(ptr noundef nonnull %8, ptr noundef null) #8
  %25 = icmp slt i32 %24, 0
  br i1 %25, label %X509_NAME_cmp.exit, label %26

26:                                               ; preds = %23, %20
  %27 = getelementptr inbounds nuw i8, ptr %5, i64 32
  %28 = load i32, ptr %27, align 8, !tbaa !38
  %29 = getelementptr inbounds nuw i8, ptr %8, i64 32
  %30 = load i32, ptr %29, align 8, !tbaa !38
  %31 = sub nsw i32 %28, %30
  %.not19.i = icmp eq i32 %31, 0
  br i1 %.not19.i, label %32, label %X509_NAME_cmp.exit

32:                                               ; preds = %26
  %33 = load ptr, ptr %9, align 8, !tbaa !33
  %34 = load ptr, ptr %18, align 8, !tbaa !33
  %35 = sext i32 %28 to i64
  %36 = tail call i32 @memcmp(ptr noundef %33, ptr noundef %34, i64 noundef %35) #9
  br label %X509_NAME_cmp.exit

X509_NAME_cmp.exit:                               ; preds = %14, %23, %26, %32
  %.0.i = phi i32 [ %36, %32 ], [ -2, %14 ], [ -2, %23 ], [ %31, %26 ]
  ret i32 %.0.i
}